target datalayout = "e-m:e-p270:32:32-p271:32:32-p272:64:64-i64:64-i128:128-f80:128-n8:16:32:64-S128"
target triple = "x86_64-pc-linux-gnu"

@OnigEncAsciiCtypeTable = external constant [0 x i16], align 2
@PropertyList = internal constant [6 x ptr] [ptr @CR_Hiragana, ptr @CR_Katakana, ptr @CR_Han, ptr @CR_Latin, ptr @CR_Greek, ptr @CR_Cyrillic], align 16

; Function Attrs: nounwind sspstrong uwtable
define internal i32 @is_code_ctype(i32 noundef %0, i32 noundef %1, ptr noundef %2) #0 {
  %4 = alloca i32, align 4
  %5 = alloca i32, align 4
  %6 = alloca i32, align 4
  %7 = alloca ptr, align 8
  store i32 %0, ptr %5, align 4, !tbaa !17
  store i32 %1, ptr %6, align 4, !tbaa !17
  store ptr %2, ptr %7, align 8, !tbaa !14
  %8 = load i32, ptr %6, align 4, !tbaa !17
  %9 = icmp ule i32 %8, 14
  br i1 %9, label %10, label %36

10:                                               ; preds = %3
  %11 = load i32, ptr %5, align 4, !tbaa !17
  %12 = icmp ult i32 %11, 128
  br i1 %12, label %13, label %24

13:                                               ; preds = %10
  %14 = load i32, ptr %5, align 4, !tbaa !17
  %15 = zext i32 %14 to i64
  %16 = getelementptr inbounds nuw [0 x i16], ptr @OnigEncAsciiCtypeTable, i64 0, i64 %15
  %17 = load i16, ptr %16, align 2, !tbaa !30
  %18 = zext i16 %17 to i32
  %19 = load i32, ptr %6, align 4, !tbaa !17
  %20 = shl i32 1, %19
  %21 = and i32 %18, %20
  %22 = icmp ne i32 %21, 0
  %23 = zext i1 %22 to i32
  store i32 %23, ptr %4, align 4
  br label %50

24:                                               ; preds = %10
  %25 = load i32, ptr %6, align 4, !tbaa !17
  %26 = icmp eq i32 %25, 12
  br i1 %26, label %33, label %27

27:                                               ; preds = %24
  %28 = load i32, ptr %6, align 4, !tbaa !17
  %29 = icmp eq i32 %28, 5
  br i1 %29, label %33, label %30

30:                                               ; preds = %27
  %31 = load i32, ptr %6, align 4, !tbaa !17
  %32 = icmp eq i32 %31, 7
  br i1 %32, label %33, label %34

33:                                               ; preds = %30, %27, %24
  store i32 1, ptr %4, align 4
  br label %50

34:                                               ; preds = %30
  br label %35

35:                                               ; preds = %34
  br label %49

36:                                               ; preds = %3
  %37 = load i32, ptr %6, align 4, !tbaa !17
  %38 = sub i32 %37, 15
  store i32 %38, ptr %6, align 4, !tbaa !17
  %39 = load i32, ptr %6, align 4, !tbaa !17
  %40 = icmp uge i32 %39, 6
  br i1 %40, label %41, label %42

41:                                               ; preds = %36
  store i32 -6, ptr %4, align 4
  br label %50

42:                                               ; preds = %36
  %43 = load i32, ptr %6, align 4, !tbaa !17
  %44 = zext i32 %43 to i64
  %45 = getelementptr inbounds nuw [6 x ptr], ptr @PropertyList, i64 0, i64 %44
  %46 = load ptr, ptr %45, align 8, !tbaa !32
  %47 = load i32, ptr %5, align 4, !tbaa !17
  %48 = call i32 @onig_is_in_code_range(ptr noundef %46, i32 noundef %47)
  store i32 %48, ptr %4, align 4
  br label %50

49:                                               ; preds = %35
  store i32 0, ptr %4, align 4
  br label %50

50:                                               ; preds = %49, %42, %41, %33, %13
  %51 = load i32, ptr %4, align 4
  ret i32 %51
}